; Function Attrs: nofree norecurse nosync nounwind sspstrong memory(argmem: read) uwtable
define dso_local range(i32 0, 2) i32 @slow_bitmap_equal(ptr noundef readonly captures(none) %bitmap1, ptr noundef readonly captures(none) %bitmap2, i64 noundef %bits) local_unnamed_addr #0 {
entry:
  %div10 = lshr i64 %bits, 6
  %cmp12.not = icmp ult i64 %bits, 64
  br i1 %cmp12.not, label %for.end, label %for.body

for.body:                                         ; preds = %entry, %for.inc
  %k.013 = phi i64 [ %inc, %for.inc ], [ 0, %entry ]
  %arrayidx = getelementptr i64, ptr %bitmap1, i64 %k.013
  %0 = load i64, ptr %arrayidx, align 8
  %arrayidx1 = getelementptr i64, ptr %bitmap2, i64 %k.013
  %1 = load i64, ptr %arrayidx1, align 8
  %cmp2.not = icmp eq i64 %0, %1
  br i1 %cmp2.not, label %for.inc, label %return

for.inc:                                          ; preds = %for.body
  %inc = add nuw nsw i64 %k.013, 1
  %exitcond.not = icmp eq i64 %inc, %div10
  br i1 %exitcond.not, label %for.end, label %for.body, !llvm.loop !8

for.end:                                          ; preds = %for.inc, %entry
  %k.0.lcssa = phi i64 [ 0, %entry ], [ %div10, %for.inc ]
  %rem = and i64 %bits, 63
  %tobool.not = icmp eq i64 %rem, 0
  br i1 %tobool.not, label %if.end10, label %if.then3

if.then3:                                         ; preds = %for.end
  %arrayidx4 = getelementptr i64, ptr %bitmap1, i64 %k.0.lcssa
  %2 = load i64, ptr %arrayidx4, align 8
  %arrayidx5 = getelementptr i64, ptr %bitmap2, i64 %k.0.lcssa
  %3 = load i64, ptr %arrayidx5, align 8
  %xor = xor i64 %3, %2
  %sub = sub i64 0, %bits
  %and = and i64 %sub, 63
  %shr = lshr i64 -1, %and
  %and6 = and i64 %xor, %shr
  %tobool7.not = icmp eq i64 %and6, 0
  br i1 %tobool7.not, label %if.end10, label %return

if.end10:                                         ; preds = %if.then3, %for.end
  br label %return

return:                                           ; preds = %for.body, %if.then3, %if.end10
  %retval.0 = phi i32 [ 1, %if.end10 ], [ 0, %if.then3 ], [ 0, %for.body ]
  ret i32 %retval.0
}